target datalayout = "e-m:e-p270:32:32-p271:32:32-p272:64:64-i64:64-i128:128-f80:128-n8:16:32:64-S128"
target triple = "x86_64-pc-linux-gnu"

%"class.pxrInternal_v0_24__pxrReserved__::PcpNodeRef" = type { ptr, i64 }
%"class.pxrInternal_v0_24__pxrReserved__::SdfPath" = type { %"struct.pxrInternal_v0_24__pxrReserved__::Sdf_PathNodeHandleImpl", %"struct.pxrInternal_v0_24__pxrReserved__::Sdf_PathNodeHandleImpl.9" }
%"struct.pxrInternal_v0_24__pxrReserved__::Sdf_PathNodeHandleImpl" = type { %"struct.pxrInternal_v0_24__pxrReserved__::Sdf_Pool<pxrInternal_v0_24__pxrReserved__::Sdf_PathPrimTag, 24, 8>::Handle" }
%"struct.pxrInternal_v0_24__pxrReserved__::Sdf_Pool<pxrInternal_v0_24__pxrReserved__::Sdf_PathPrimTag, 24, 8>::Handle" = type { i32 }
%"struct.pxrInternal_v0_24__pxrReserved__::Sdf_PathNodeHandleImpl.9" = type { %"struct.pxrInternal_v0_24__pxrReserved__::Sdf_Pool<pxrInternal_v0_24__pxrReserved__::Sdf_PathPropTag, 24, 8>::Handle" }
%"struct.pxrInternal_v0_24__pxrReserved__::Sdf_Pool<pxrInternal_v0_24__pxrReserved__::Sdf_PathPropTag, 24, 8>::Handle" = type { i32 }
%"class.pxrInternal_v0_24__pxrReserved__::TfRefPtr.23" = type { ptr }
%"class.pxrInternal_v0_24__pxrReserved__::PcpLayerStackSite" = type { %"class.pxrInternal_v0_24__pxrReserved__::TfRefPtr.23", %"class.pxrInternal_v0_24__pxrReserved__::SdfPath" }

; Function Attrs: mustprogress nounwind uwtable
define linkonce_odr noundef zeroext i1 @_ZNK32pxrInternal_v0_24__pxrReserved__10PcpNodeRefeqERKS0_(ptr noundef nonnull align 8 dereferenceable(16) %0, ptr noundef nonnull align 8 dereferenceable(16) %1) #5 comdat align 2 {
  %3 = alloca ptr, align 8
  %4 = alloca ptr, align 8
  store ptr %0, ptr %3, align 8
  store ptr %1, ptr %4, align 8
  %5 = load ptr, ptr %3, align 8
  %6 = getelementptr inbounds nuw %"class.pxrInternal_v0_24__pxrReserved__::PcpNodeRef", ptr %5, i32 0, i32 1
  %7 = load i64, ptr %6, align 8
  %8 = load ptr, ptr %4, align 8
  %9 = getelementptr inbounds nuw %"class.pxrInternal_v0_24__pxrReserved__::PcpNodeRef", ptr %8, i32 0, i32 1
  %10 = load i64, ptr %9, align 8
  %11 = icmp eq i64 %7, %10
  br i1 %11, label %12, label %19

12:                                               ; preds = %2
  %13 = getelementptr inbounds nuw %"class.pxrInternal_v0_24__pxrReserved__::PcpNodeRef", ptr %5, i32 0, i32 0
  %14 = load ptr, ptr %13, align 8
  %15 = load ptr, ptr %4, align 8
  %16 = getelementptr inbounds nuw %"class.pxrInternal_v0_24__pxrReserved__::PcpNodeRef", ptr %15, i32 0, i32 0
  %17 = load ptr, ptr %16, align 8
  %18 = icmp eq ptr %14, %17
  br label %19

19:                                               ; preds = %12, %2
  %20 = phi i1 [ false, %2 ], [ %18, %12 ]
  ret i1 %20
}

; Function Attrs: mustprogress nounwind uwtable
define linkonce_odr noundef zeroext i1 @_ZN32pxrInternal_v0_24__pxrReserved__18PcpIsSpecializeArcENS_10PcpArcTypeE(i32 noundef %0) #5 comdat {
  %2 = alloca i32, align 4
  store i32 %0, ptr %2, align 4
  %3 = load i32, ptr %2, align 4
  %4 = icmp eq i32 %3, 6
  ret i1 %4
}

; Function Attrs: mustprogress uwtable
define internal noundef zeroext i1 @_ZN32pxrInternal_v0_24__pxrReserved__L28_IsPropagatedSpecializesNodeERKNS_10PcpNodeRefE(ptr noundef nonnull align 8 dereferenceable(16) %0) #4 personality ptr @__gxx_personality_v0 {
  %2 = alloca i1, align 1
  %3 = alloca ptr, align 8
  %4 = alloca %"class.pxrInternal_v0_24__pxrReserved__::PcpNodeRef", align 8
  %5 = alloca %"class.pxrInternal_v0_24__pxrReserved__::PcpNodeRef", align 8
  %6 = alloca %"class.pxrInternal_v0_24__pxrReserved__::PcpLayerStackSite", align 8
  %7 = alloca i1, align 1
  %8 = alloca %"class.pxrInternal_v0_24__pxrReserved__::PcpLayerStackSite", align 8
  %9 = alloca %"class.pxrInternal_v0_24__pxrReserved__::PcpNodeRef", align 8
  %10 = alloca ptr, align 8
  %11 = alloca i32, align 4
  %12 = alloca i1, align 1
  store ptr %0, ptr %3, align 8
  %13 = load ptr, ptr %3, align 8
  %14 = call noundef i32 @_ZNK32pxrInternal_v0_24__pxrReserved__10PcpNodeRef10GetArcTypeEv(ptr noundef nonnull align 8 dereferenceable(16) %13)
  %15 = call noundef zeroext i1 @_ZN32pxrInternal_v0_24__pxrReserved__18PcpIsSpecializeArcENS_10PcpArcTypeE(i32 noundef %14)
  store i1 false, ptr %7, align 1
  store i1 false, ptr %12, align 1
  br i1 %15, label %16, label %42

16:                                               ; preds = %1
  %17 = load ptr, ptr %3, align 8
  %18 = call { ptr, i64 } @_ZNK32pxrInternal_v0_24__pxrReserved__10PcpNodeRef13GetParentNodeEv(ptr noundef nonnull align 8 dereferenceable(16) %17)
  %19 = getelementptr inbounds nuw { ptr, i64 }, ptr %4, i32 0, i32 0
  %20 = extractvalue { ptr, i64 } %18, 0
  store ptr %20, ptr %19, align 8
  %21 = getelementptr inbounds nuw { ptr, i64 }, ptr %4, i32 0, i32 1
  %22 = extractvalue { ptr, i64 } %18, 1
  store i64 %22, ptr %21, align 8
  %23 = load ptr, ptr %3, align 8
  %24 = call { ptr, i64 } @_ZNK32pxrInternal_v0_24__pxrReserved__10PcpNodeRef11GetRootNodeEv(ptr noundef nonnull align 8 dereferenceable(16) %23)
  %25 = getelementptr inbounds nuw { ptr, i64 }, ptr %5, i32 0, i32 0
  %26 = extractvalue { ptr, i64 } %24, 0
  store ptr %26, ptr %25, align 8
  %27 = getelementptr inbounds nuw { ptr, i64 }, ptr %5, i32 0, i32 1
  %28 = extractvalue { ptr, i64 } %24, 1
  store i64 %28, ptr %27, align 8
  %29 = call noundef zeroext i1 @_ZNK32pxrInternal_v0_24__pxrReserved__10PcpNodeRefeqERKS0_(ptr noundef nonnull align 8 dereferenceable(16) %4, ptr noundef nonnull align 8 dereferenceable(16) %5)
  br i1 %29, label %30, label %42

30:                                               ; preds = %16
  %31 = load ptr, ptr %3, align 8
  call void @_ZNK32pxrInternal_v0_24__pxrReserved__10PcpNodeRef7GetSiteEv(ptr dead_on_unwind writable sret(%"class.pxrInternal_v0_24__pxrReserved__::PcpLayerStackSite") align 8 %6, ptr noundef nonnull align 8 dereferenceable(16) %31)
  store i1 true, ptr %7, align 1
  %32 = load ptr, ptr %3, align 8
  %33 = invoke { ptr, i64 } @_ZNK32pxrInternal_v0_24__pxrReserved__10PcpNodeRef13GetOriginNodeEv(ptr noundef nonnull align 8 dereferenceable(16) %32)
          to label %34 unwind label %51

34:                                               ; preds = %30
  %35 = getelementptr inbounds nuw { ptr, i64 }, ptr %9, i32 0, i32 0
  %36 = extractvalue { ptr, i64 } %33, 0
  store ptr %36, ptr %35, align 8
  %37 = getelementptr inbounds nuw { ptr, i64 }, ptr %9, i32 0, i32 1
  %38 = extractvalue { ptr, i64 } %33, 1
  store i64 %38, ptr %37, align 8
  invoke void @_ZNK32pxrInternal_v0_24__pxrReserved__10PcpNodeRef7GetSiteEv(ptr dead_on_unwind writable sret(%"class.pxrInternal_v0_24__pxrReserved__::PcpLayerStackSite") align 8 %8, ptr noundef nonnull align 8 dereferenceable(16) %9)
          to label %39 unwind label %51

39:                                               ; preds = %34
  store i1 true, ptr %12, align 1
  %40 = invoke noundef zeroext i1 @_ZNK32pxrInternal_v0_24__pxrReserved__17PcpLayerStackSiteeqERKS0_(ptr noundef nonnull align 8 dereferenceable(16) %6, ptr noundef nonnull align 8 dereferenceable(16) %8)
          to label %41 unwind label %55

41:                                               ; preds = %39
  br label %42

42:                                               ; preds = %41, %16, %1
  %43 = phi i1 [ false, %16 ], [ false, %1 ], [ %40, %41 ]
  store i1 %43, ptr %2, align 1
  %44 = load i1, ptr %12, align 1
  br i1 %44, label %45, label %46

45:                                               ; preds = %42
  call void @_ZN32pxrInternal_v0_24__pxrReserved__17PcpLayerStackSiteD2Ev(ptr noundef nonnull align 8 dereferenceable(16) %8) #3
  br label %46

46:                                               ; preds = %45, %42
  %47 = load i1, ptr %7, align 1
  br i1 %47, label %48, label %49

48:                                               ; preds = %46
  call void @_ZN32pxrInternal_v0_24__pxrReserved__17PcpLayerStackSiteD2Ev(ptr noundef nonnull align 8 dereferenceable(16) %6) #3
  br label %49

49:                                               ; preds = %48, %46
  %50 = load i1, ptr %2, align 1
  ret i1 %50

51:                                               ; preds = %34, %30
  %52 = landingpad { ptr, i32 }
          cleanup
  %53 = extractvalue { ptr, i32 } %52, 0
  store ptr %53, ptr %10, align 8
  %54 = extractvalue { ptr, i32 } %52, 1
  store i32 %54, ptr %11, align 4
  br label %62

55:                                               ; preds = %39
  %56 = landingpad { ptr, i32 }
          cleanup
  %57 = extractvalue { ptr, i32 } %56, 0
  store ptr %57, ptr %10, align 8
  %58 = extractvalue { ptr, i32 } %56, 1
  store i32 %58, ptr %11, align 4
  %59 = load i1, ptr %12, align 1
  br i1 %59, label %60, label %61

60:                                               ; preds = %55
  call void @_ZN32pxrInternal_v0_24__pxrReserved__17PcpLayerStackSiteD2Ev(ptr noundef nonnull align 8 dereferenceable(16) %8) #3
  br label %61

61:                                               ; preds = %60, %55
  br label %62

62:                                               ; preds = %61, %51
  %63 = load i1, ptr %7, align 1
  br i1 %63, label %64, label %65

64:                                               ; preds = %62
  call void @_ZN32pxrInternal_v0_24__pxrReserved__17PcpLayerStackSiteD2Ev(ptr noundef nonnull align 8 dereferenceable(16) %6) #3
  br label %65

65:                                               ; preds = %64, %62
  br label %66

66:                                               ; preds = %65
  %67 = load ptr, ptr %10, align 8
  %68 = load i32, ptr %11, align 4
  %69 = insertvalue { ptr, i32 } poison, ptr %67, 0
  %70 = insertvalue { ptr, i32 } %69, i32 %68, 1
  resume { ptr, i32 } %70
}