; Function Attrs: mustprogress uwtable
define internal fastcc noundef zeroext i1 @_ZN32pxrInternal_v0_24__pxrReserved__L28_IsPropagatedSpecializesNodeERKNS_10PcpNodeRefE(ptr noundef nonnull align 8 dereferenceable(16) %0) unnamed_addr #3 personality ptr @__gxx_personality_v0 {
  %2 = alloca %"class.pxrInternal_v0_24__pxrReserved__::PcpLayerStackSite", align 8
  %3 = alloca %"class.pxrInternal_v0_24__pxrReserved__::PcpLayerStackSite", align 8
  %4 = alloca %"class.pxrInternal_v0_24__pxrReserved__::PcpNodeRef", align 8
  %5 = tail call noundef i32 @_ZNK32pxrInternal_v0_24__pxrReserved__10PcpNodeRef10GetArcTypeEv(ptr noundef nonnull align 8 dereferenceable(16) %0)
  %6 = icmp eq i32 %5, 6
  br i1 %6, label %7, label %.critedge

7:                                                ; preds = %1
  %8 = tail call { ptr, i64 } @_ZNK32pxrInternal_v0_24__pxrReserved__10PcpNodeRef13GetParentNodeEv(ptr noundef nonnull align 8 dereferenceable(16) %0)
  %9 = extractvalue { ptr, i64 } %8, 0
  %10 = extractvalue { ptr, i64 } %8, 1
  %11 = tail call { ptr, i64 } @_ZNK32pxrInternal_v0_24__pxrReserved__10PcpNodeRef11GetRootNodeEv(ptr noundef nonnull align 8 dereferenceable(16) %0)
  %12 = extractvalue { ptr, i64 } %11, 0
  %13 = extractvalue { ptr, i64 } %11, 1
  %14 = icmp eq i64 %10, %13
  %15 = icmp eq ptr %9, %12
  %16 = select i1 %14, i1 %15, i1 false
  br i1 %16, label %17, label %.critedge

17:                                               ; preds = %7
  call void @_ZNK32pxrInternal_v0_24__pxrReserved__10PcpNodeRef7GetSiteEv(ptr dead_on_unwind nonnull writable sret(%"class.pxrInternal_v0_24__pxrReserved__::PcpLayerStackSite") align 8 %2, ptr noundef nonnull align 8 dereferenceable(16) %0)
  %18 = invoke { ptr, i64 } @_ZNK32pxrInternal_v0_24__pxrReserved__10PcpNodeRef13GetOriginNodeEv(ptr noundef nonnull align 8 dereferenceable(16) %0)
          to label %19 unwind label %27

19:                                               ; preds = %17
  %20 = extractvalue { ptr, i64 } %18, 0
  store ptr %20, ptr %4, align 8
  %21 = getelementptr inbounds nuw i8, ptr %4, i64 8
  %22 = extractvalue { ptr, i64 } %18, 1
  store i64 %22, ptr %21, align 8
  invoke void @_ZNK32pxrInternal_v0_24__pxrReserved__10PcpNodeRef7GetSiteEv(ptr dead_on_unwind nonnull writable sret(%"class.pxrInternal_v0_24__pxrReserved__::PcpLayerStackSite") align 8 %3, ptr noundef nonnull align 8 dereferenceable(16) %4)
          to label %23 unwind label %27

23:                                               ; preds = %19
  %24 = invoke noundef zeroext i1 @_ZNK32pxrInternal_v0_24__pxrReserved__17PcpLayerStackSiteeqERKS0_(ptr noundef nonnull align 8 dereferenceable(16) %2, ptr noundef nonnull align 8 dereferenceable(16) %3)
          to label %25 unwind label %29

25:                                               ; preds = %23
  call void @_ZN32pxrInternal_v0_24__pxrReserved__17PcpLayerStackSiteD2Ev(ptr noundef nonnull align 8 dereferenceable(16) %3) #22
  call void @_ZN32pxrInternal_v0_24__pxrReserved__17PcpLayerStackSiteD2Ev(ptr noundef nonnull align 8 dereferenceable(16) %2) #22
  br label %.critedge

.critedge:                                        ; preds = %1, %7, %25
  %26 = phi i1 [ %24, %25 ], [ false, %7 ], [ false, %1 ]
  ret i1 %26

27:                                               ; preds = %19, %17
  %28 = landingpad { ptr, i32 }
          cleanup
  br label %31

29:                                               ; preds = %23
  %30 = landingpad { ptr, i32 }
          cleanup
  call void @_ZN32pxrInternal_v0_24__pxrReserved__17PcpLayerStackSiteD2Ev(ptr noundef nonnull align 8 dereferenceable(16) %3) #22
  br label %31

31:                                               ; preds = %27, %29
  %.pn = phi { ptr, i32 } [ %30, %29 ], [ %28, %27 ]
  call void @_ZN32pxrInternal_v0_24__pxrReserved__17PcpLayerStackSiteD2Ev(ptr noundef nonnull align 8 dereferenceable(16) %2) #22
  resume { ptr, i32 } %.pn
}